; Function Attrs: nounwind uwtable
define void @png_read_update_info(ptr noalias noundef %0, ptr noalias noundef %1) local_unnamed_addr #0 {
  %.not = icmp eq ptr %0, null
  br i1 %.not, label %10, label %3

3:                                                ; preds = %2
  %4 = getelementptr inbounds i8, ptr %0, i64 304
  %5 = load i32, ptr %4, align 8
  %6 = and i32 %5, 64
  %7 = icmp eq i32 %6, 0
  br i1 %7, label %8, label %9

8:                                                ; preds = %3
  tail call void @png_read_start_row(ptr noundef nonnull %0) #11
  tail call void @png_read_transform_info(ptr noundef nonnull %0, ptr noundef %1) #11
  br label %10

9:                                                ; preds = %3
  tail call void @png_app_error(ptr noundef nonnull %0, ptr noundef nonnull @.str.3) #11
  br label %10

10:                                               ; preds = %8, %9, %2
  ret void
}